; Function Attrs: nounwind uwtable
define noalias noundef ptr @Iso_ManTest(ptr noundef %0, i32 noundef %1) local_unnamed_addr #0 {
  %3 = alloca %struct.timespec, align 8
  %4 = alloca %struct.timespec, align 8
  call void @llvm.lifetime.start.p0(i64 16, ptr nonnull %4) #24
  %5 = call i32 @clock_gettime(i32 noundef 1, ptr noundef nonnull %4) #24
  %6 = icmp slt i32 %5, 0
  br i1 %6, label %Abc_Clock.exit, label %7

7:                                                ; preds = %2
  %8 = load i64, ptr %4, align 8, !tbaa !70
  %.neg5 = mul i64 %8, -1000000
  %9 = getelementptr inbounds nuw i8, ptr %4, i64 8
  %10 = load i64, ptr %9, align 8, !tbaa !72
  %.neg = sdiv i64 %10, -1000
  %.neg6 = add i64 %.neg, %.neg5
  br label %Abc_Clock.exit

Abc_Clock.exit:                                   ; preds = %2, %7
  %.0.i.neg = phi i64 [ %.neg6, %7 ], [ 1, %2 ]
  call void @llvm.lifetime.end.p0(i64 16, ptr nonnull %4) #24
  %11 = call ptr @Saig_ManFindIsoPerm(ptr noundef %0, i32 noundef %1) #24
  %12 = getelementptr inbounds nuw i8, ptr %11, i64 8
  %13 = load ptr, ptr %12, align 8, !tbaa !12
  %.not.i = icmp eq ptr %13, null
  br i1 %.not.i, label %Vec_IntFree.exit, label %14

14:                                               ; preds = %Abc_Clock.exit
  call void @free(ptr noundef nonnull %13) #24
  br label %Vec_IntFree.exit

Vec_IntFree.exit:                                 ; preds = %Abc_Clock.exit, %14
  call void @free(ptr noundef nonnull %11) #24
  call void @llvm.lifetime.start.p0(i64 16, ptr nonnull %3) #24
  %15 = call i32 @clock_gettime(i32 noundef 1, ptr noundef nonnull %3) #24
  %16 = icmp slt i32 %15, 0
  br i1 %16, label %Abc_Clock.exit4, label %17

17:                                               ; preds = %Vec_IntFree.exit
  %18 = load i64, ptr %3, align 8, !tbaa !70
  %19 = mul nsw i64 %18, 1000000
  %20 = getelementptr inbounds nuw i8, ptr %3, i64 8
  %21 = load i64, ptr %20, align 8, !tbaa !72
  %22 = sdiv i64 %21, 1000
  %23 = add nsw i64 %22, %19
  br label %Abc_Clock.exit4

Abc_Clock.exit4:                                  ; preds = %Vec_IntFree.exit, %17
  %.0.i3 = phi i64 [ %23, %17 ], [ -1, %Vec_IntFree.exit ]
  call void @llvm.lifetime.end.p0(i64 16, ptr nonnull %3) #24
  %24 = add i64 %.0.i3, %.0.i.neg
  call void (i32, ptr, ...) @Abc_Print(i32 poison, ptr noundef nonnull @.str.17, ptr noundef nonnull @.str.12)
  %25 = sitofp i64 %24 to double
  %26 = fdiv double %25, 1.000000e+06
  call void (i32, ptr, ...) @Abc_Print(i32 poison, ptr noundef nonnull @.str.18, double noundef %26)
  ret ptr null
}